; Function Attrs: mustprogress uwtable
define hidden noundef ptr @_ZN7datalog24external_relation_plugin12mk_rename_fnERKNS_13relation_baseEjPKj(ptr noundef nonnull align 8 dereferenceable(48) %this, ptr noundef nonnull align 8 dereferenceable(28) %r, i32 noundef %cycle_len, ptr noundef %permutation_cycle) unnamed_addr #3 align 2 {
entry:
  %m_plugin.i.i = getelementptr inbounds i8, ptr %r, i64 8
  %0 = load ptr, ptr %m_plugin.i.i, align 8
  %cmp.i = icmp eq ptr %0, %this
  br i1 %cmp.i, label %if.end, label %return

if.end:                                           ; preds = %entry
  %call2 = tail call noalias noundef ptr @_ZN6memory8allocateEm(i64 noundef 64)
  %1 = tail call ptr @__dynamic_cast(ptr nonnull %r, ptr nonnull @_ZTIN7datalog13relation_baseE, ptr nonnull @_ZTIN7datalog17external_relationE, i64 0) #17
  %2 = icmp eq ptr %1, null
  br i1 %2, label %dynamic_cast.bad_cast.i, label %_ZN7datalog24external_relation_plugin3getERKNS_13relation_baseE.exit

dynamic_cast.bad_cast.i:                          ; preds = %if.end
  tail call void @__cxa_bad_cast() #20
  unreachable

_ZN7datalog24external_relation_plugin3getERKNS_13relation_baseE.exit: ; preds = %if.end
  %m_rel.i = getelementptr inbounds i8, ptr %1, i64 32
  %3 = load ptr, ptr %m_rel.i, align 8
  %call2.i = tail call noundef ptr @_ZNK4expr8get_sortEv(ptr noundef nonnull align 4 dereferenceable(16) %3)
  %m_signature.i = getelementptr inbounds i8, ptr %r, i64 16
  tail call void @_ZN7datalog24external_relation_plugin9rename_fnC2ERS0_P4sortRKNS_18relation_signatureEjPKj(ptr noundef nonnull align 8 dereferenceable(64) %call2, ptr noundef nonnull align 8 dereferenceable(48) %this, ptr noundef %call2.i, ptr noundef nonnull align 8 dereferenceable(8) %m_signature.i, i32 noundef %cycle_len, ptr noundef %permutation_cycle)
  br label %return

return:                                           ; preds = %entry, %_ZN7datalog24external_relation_plugin3getERKNS_13relation_baseE.exit
  %retval.0 = phi ptr [ %call2, %_ZN7datalog24external_relation_plugin3getERKNS_13relation_baseE.exit ], [ null, %entry ]
  ret ptr %retval.0
}